(lp0
F1.0
aF0.9807852804032304
aF0.9238795325112867
aF0.8314696123025452
aF0.7071067811865476
aF0.5555702330196023
aF0.38268343236508984
aF0.1950903220161283
aF6.123233995736766e-17
aF-0.1950903220161282
aF-0.3826834323650897
aF-0.555570233019602
aF-0.7071067811865475
aF-0.8314696123025453
aF-0.9238795325112868
aF-0.9807852804032305
aF-1.0
aF-0.9807852804032302
aF-0.9238795325112863
aF-0.8314696123025445
aF-0.7071067811865464
aF-0.5555702330196007
aF-0.38268343236508784
aF-0.19509032201612606
aF2.4808382392282726e-15
aF0.1950903220161309
aF0.3826834323650925
aF0.5555702330196048
aF0.7071067811865499
aF0.8314696123025472
aF0.9238795325112882
aF0.9807852804032312
a.