(lp0
F0.0
aF0.19509032201612825
aF0.3826834323650898
aF0.5555702330196022
aF0.7071067811865475
aF0.8314696123025451
aF0.9238795325112867
aF0.9807852804032304
aF1.0
aF0.9807852804032304
aF0.9238795325112867
aF0.8314696123025455
aF0.7071067811865476
aF0.5555702330196022
aF0.38268343236508945
aF0.19509032201612772
aF-7.657137397853899e-16
aF-0.19509032201612925
aF-0.3826834323650909
aF-0.5555702330196034
aF-0.7071067811865486
aF-0.8314696123025462
aF-0.9238795325112875
aF-0.9807852804032309
aF-1.0
aF-0.9807852804032299
aF-0.9238795325112856
aF-0.8314696123025436
aF-0.7071067811865451
aF-0.5555702330195993
aF-0.3826834323650863
aF-0.19509032201612436
a.